target datalayout = "e-m:e-p270:32:32-p271:32:32-p272:64:64-i64:64-i128:128-f80:128-n8:16:32:64-S128"
target triple = "x86_64-pc-linux-gnu"

%struct.avifDecodeSample = type { %struct.avifROData, i32, i32, i32, i64, i64, i8, i32 }
%struct.avifROData = type { ptr, i64 }
%struct.avifDecoder = type { i32, i32, i32, i32, i32, i32, i32, i32, i32, i32, i32, ptr, i32, i32, i32, %struct.avifImageTiming, i64, double, i64, i32, i32, %struct.avifIOStats, %struct.avifDiagnostics, ptr, ptr, i32 }
%struct.avifImageTiming = type { i64, double, i64, double, i64 }
%struct.avifIOStats = type { i64, i64 }
%struct.avifDiagnostics = type { [256 x i8] }
%struct.avifDecoderData = type { ptr, %struct.avifTrackArray, %struct.avifTileArray, [2 x %struct.avifTileInfo], i32, ptr, ptr, [4 x i8], ptr, ptr, i32 }
%struct.avifTrackArray = type { ptr, i32, i32, i32 }
%struct.avifTileArray = type { ptr, i32, i32, i32 }
%struct.avifTileInfo = type { i32, i32, i32, %struct.avifImageGrid }
%struct.avifImageGrid = type { i32, i32, i32, i32 }
%struct.avifIO = type { ptr, ptr, ptr, i64, i32, ptr }
%struct.avifRWData = type { ptr, i64 }
%struct.avifPropertyArray = type { ptr, i32, i32, i32 }
%struct.avifDecoderItem = type { i32, ptr, [4 x i8], i64, i32, i32, i32, %struct.avifContentType, %struct.avifPropertyArray, %struct.avifExtentArray, %struct.avifRWData, i32, i32, i32, i32, i32, i32, i32, i32, i32, i32, i32 }
%struct.avifContentType = type { [64 x i8] }
%struct.avifExtentArray = type { ptr, i32, i32, i32 }

; Function Attrs: nounwind uwtable
define internal i32 @avifDecoderPrepareSample(ptr noundef %0, ptr noundef %1, i64 noundef %2) #0 {
  %4 = alloca i32, align 4
  %5 = alloca ptr, align 8
  %6 = alloca ptr, align 8
  %7 = alloca i64, align 8
  %8 = alloca i64, align 8
  %9 = alloca ptr, align 8
  %10 = alloca i32, align 4
  %11 = alloca %struct.avifROData, align 8
  %12 = alloca i64, align 8
  %13 = alloca i32, align 4
  %14 = alloca %struct.avifROData, align 8
  %15 = alloca i32, align 4
  %16 = alloca i32, align 4
  store ptr %0, ptr %5, align 8
  store ptr %1, ptr %6, align 8
  store i64 %2, ptr %7, align 8
  %17 = load ptr, ptr %6, align 8
  %18 = getelementptr inbounds nuw %struct.avifDecodeSample, ptr %17, i32 0, i32 0
  %19 = getelementptr inbounds nuw %struct.avifROData, ptr %18, i32 0, i32 1
  %20 = load i64, ptr %19, align 8
  %21 = icmp ne i64 %20, 0
  br i1 %21, label %22, label %27

22:                                               ; preds = %3
  %23 = load ptr, ptr %6, align 8
  %24 = getelementptr inbounds nuw %struct.avifDecodeSample, ptr %23, i32 0, i32 2
  %25 = load i32, ptr %24, align 4
  %26 = icmp ne i32 %25, 0
  br i1 %26, label %27, label %180

27:                                               ; preds = %22, %3
  %28 = load ptr, ptr %6, align 8
  %29 = getelementptr inbounds nuw %struct.avifDecodeSample, ptr %28, i32 0, i32 5
  %30 = load i64, ptr %29, align 8
  store i64 %30, ptr %8, align 8
  %31 = load i64, ptr %7, align 8
  %32 = icmp ne i64 %31, 0
  br i1 %32, label %33, label %39

33:                                               ; preds = %27
  %34 = load i64, ptr %8, align 8
  %35 = load i64, ptr %7, align 8
  %36 = icmp ugt i64 %34, %35
  br i1 %36, label %37, label %39

37:                                               ; preds = %33
  %38 = load i64, ptr %7, align 8
  store i64 %38, ptr %8, align 8
  br label %39

39:                                               ; preds = %37, %33, %27
  %40 = load ptr, ptr %6, align 8
  %41 = getelementptr inbounds nuw %struct.avifDecodeSample, ptr %40, i32 0, i32 3
  %42 = load i32, ptr %41, align 8
  %43 = icmp ne i32 %42, 0
  br i1 %43, label %44, label %93

44:                                               ; preds = %39
  br label %45

45:                                               ; preds = %44
  %46 = load ptr, ptr %5, align 8
  %47 = getelementptr inbounds nuw %struct.avifDecoder, ptr %46, i32 0, i32 24
  %48 = load ptr, ptr %47, align 8
  %49 = getelementptr inbounds nuw %struct.avifDecoderData, ptr %48, i32 0, i32 0
  %50 = load ptr, ptr %49, align 8
  %51 = load ptr, ptr %6, align 8
  %52 = getelementptr inbounds nuw %struct.avifDecodeSample, ptr %51, i32 0, i32 3
  %53 = load i32, ptr %52, align 8
  %54 = call i32 @avifMetaFindOrCreateItem(ptr noundef %50, i32 noundef %53, ptr noundef %9)
  store i32 %54, ptr %10, align 4
  %55 = load i32, ptr %10, align 4
  %56 = icmp ne i32 %55, 0
  br i1 %56, label %57, label %59

57:                                               ; preds = %45
  %58 = load i32, ptr %10, align 4
  store i32 %58, ptr %4, align 4
  br label %181

59:                                               ; preds = %45
  br label %60

60:                                               ; preds = %59
  %61 = load ptr, ptr %6, align 8
  %62 = getelementptr inbounds nuw %struct.avifDecodeSample, ptr %61, i32 0, i32 4
  %63 = load i64, ptr %62, align 8
  %64 = icmp ugt i64 %63, -1
  br i1 %64, label %65, label %66

65:                                               ; preds = %60
  store i32 9, ptr %4, align 4
  br label %181

66:                                               ; preds = %60
  %67 = load ptr, ptr %6, align 8
  %68 = getelementptr inbounds nuw %struct.avifDecodeSample, ptr %67, i32 0, i32 4
  %69 = load i64, ptr %68, align 8
  store i64 %69, ptr %12, align 8
  %70 = load ptr, ptr %9, align 8
  %71 = load ptr, ptr %5, align 8
  %72 = getelementptr inbounds nuw %struct.avifDecoder, ptr %71, i32 0, i32 23
  %73 = load ptr, ptr %72, align 8
  %74 = load i64, ptr %12, align 8
  %75 = load i64, ptr %8, align 8
  %76 = load ptr, ptr %5, align 8
  %77 = getelementptr inbounds nuw %struct.avifDecoder, ptr %76, i32 0, i32 22
  %78 = call i32 @avifDecoderItemRead(ptr noundef %70, ptr noundef %73, ptr noundef %11, i64 noundef %74, i64 noundef %75, ptr noundef %77)
  store i32 %78, ptr %13, align 4
  %79 = load i32, ptr %13, align 4
  %80 = icmp ne i32 %79, 0
  br i1 %80, label %81, label %83

81:                                               ; preds = %66
  %82 = load i32, ptr %13, align 4
  store i32 %82, ptr %4, align 4
  br label %181

83:                                               ; preds = %66
  %84 = load ptr, ptr %6, align 8
  %85 = getelementptr inbounds nuw %struct.avifDecodeSample, ptr %84, i32 0, i32 0
  call void @llvm.memcpy.p0.p0.i64(ptr align 8 %85, ptr align 8 %11, i64 16, i1 false)
  %86 = load ptr, ptr %6, align 8
  %87 = getelementptr inbounds nuw %struct.avifDecodeSample, ptr %86, i32 0, i32 1
  store i32 0, ptr %87, align 8
  %88 = load ptr, ptr %9, align 8
  %89 = getelementptr inbounds nuw %struct.avifDecoderItem, ptr %88, i32 0, i32 12
  %90 = load i32, ptr %89, align 4
  %91 = load ptr, ptr %6, align 8
  %92 = getelementptr inbounds nuw %struct.avifDecodeSample, ptr %91, i32 0, i32 2
  store i32 %90, ptr %92, align 4
  br label %179

93:                                               ; preds = %39
  %94 = load ptr, ptr %5, align 8
  %95 = getelementptr inbounds nuw %struct.avifDecoder, ptr %94, i32 0, i32 23
  %96 = load ptr, ptr %95, align 8
  %97 = getelementptr inbounds nuw %struct.avifIO, ptr %96, i32 0, i32 3
  %98 = load i64, ptr %97, align 8
  %99 = icmp ugt i64 %98, 0
  br i1 %99, label %100, label %111

100:                                              ; preds = %93
  %101 = load ptr, ptr %6, align 8
  %102 = getelementptr inbounds nuw %struct.avifDecodeSample, ptr %101, i32 0, i32 4
  %103 = load i64, ptr %102, align 8
  %104 = load ptr, ptr %5, align 8
  %105 = getelementptr inbounds nuw %struct.avifDecoder, ptr %104, i32 0, i32 23
  %106 = load ptr, ptr %105, align 8
  %107 = getelementptr inbounds nuw %struct.avifIO, ptr %106, i32 0, i32 3
  %108 = load i64, ptr %107, align 8
  %109 = icmp ugt i64 %103, %108
  br i1 %109, label %110, label %111

110:                                              ; preds = %100
  store i32 9, ptr %4, align 4
  br label %181

111:                                              ; preds = %100, %93
  %112 = load ptr, ptr %5, align 8
  %113 = getelementptr inbounds nuw %struct.avifDecoder, ptr %112, i32 0, i32 23
  %114 = load ptr, ptr %113, align 8
  %115 = getelementptr inbounds nuw %struct.avifIO, ptr %114, i32 0, i32 1
  %116 = load ptr, ptr %115, align 8
  %117 = load ptr, ptr %5, align 8
  %118 = getelementptr inbounds nuw %struct.avifDecoder, ptr %117, i32 0, i32 23
  %119 = load ptr, ptr %118, align 8
  %120 = load ptr, ptr %6, align 8
  %121 = getelementptr inbounds nuw %struct.avifDecodeSample, ptr %120, i32 0, i32 4
  %122 = load i64, ptr %121, align 8
  %123 = load i64, ptr %8, align 8
  %124 = call i32 %116(ptr noundef %119, i32 noundef 0, i64 noundef %122, i64 noundef %123, ptr noundef %14)
  store i32 %124, ptr %15, align 4
  %125 = load i32, ptr %15, align 4
  %126 = icmp ne i32 %125, 0
  br i1 %126, label %127, label %129

127:                                              ; preds = %111
  %128 = load i32, ptr %15, align 4
  store i32 %128, ptr %4, align 4
  br label %181

129:                                              ; preds = %111
  %130 = getelementptr inbounds nuw %struct.avifROData, ptr %14, i32 0, i32 1
  %131 = load i64, ptr %130, align 8
  %132 = load i64, ptr %8, align 8
  %133 = icmp ne i64 %131, %132
  br i1 %133, label %134, label %135

134:                                              ; preds = %129
  store i32 20, ptr %4, align 4
  br label %181

135:                                              ; preds = %129
  %136 = load ptr, ptr %5, align 8
  %137 = getelementptr inbounds nuw %struct.avifDecoder, ptr %136, i32 0, i32 23
  %138 = load ptr, ptr %137, align 8
  %139 = getelementptr inbounds nuw %struct.avifIO, ptr %138, i32 0, i32 4
  %140 = load i32, ptr %139, align 8
  %141 = icmp ne i32 %140, 0
  %142 = xor i1 %141, true
  %143 = zext i1 %142 to i32
  %144 = load ptr, ptr %6, align 8
  %145 = getelementptr inbounds nuw %struct.avifDecodeSample, ptr %144, i32 0, i32 1
  store i32 %143, ptr %145, align 8
  %146 = load i64, ptr %8, align 8
  %147 = load ptr, ptr %6, align 8
  %148 = getelementptr inbounds nuw %struct.avifDecodeSample, ptr %147, i32 0, i32 5
  %149 = load i64, ptr %148, align 8
  %150 = icmp ne i64 %146, %149
  %151 = zext i1 %150 to i32
  %152 = load ptr, ptr %6, align 8
  %153 = getelementptr inbounds nuw %struct.avifDecodeSample, ptr %152, i32 0, i32 2
  store i32 %151, ptr %153, align 4
  %154 = load ptr, ptr %5, align 8
  %155 = getelementptr inbounds nuw %struct.avifDecoder, ptr %154, i32 0, i32 23
  %156 = load ptr, ptr %155, align 8
  %157 = getelementptr inbounds nuw %struct.avifIO, ptr %156, i32 0, i32 4
  %158 = load i32, ptr %157, align 8
  %159 = icmp ne i32 %158, 0
  br i1 %159, label %160, label %163

160:                                              ; preds = %135
  %161 = load ptr, ptr %6, align 8
  %162 = getelementptr inbounds nuw %struct.avifDecodeSample, ptr %161, i32 0, i32 0
  call void @llvm.memcpy.p0.p0.i64(ptr align 8 %162, ptr align 8 %14, i64 16, i1 false)
  br label %178

163:                                              ; preds = %135
  br label %164

164:                                              ; preds = %163
  %165 = load ptr, ptr %6, align 8
  %166 = getelementptr inbounds nuw %struct.avifDecodeSample, ptr %165, i32 0, i32 0
  %167 = getelementptr inbounds nuw %struct.avifROData, ptr %14, i32 0, i32 0
  %168 = load ptr, ptr %167, align 8
  %169 = getelementptr inbounds nuw %struct.avifROData, ptr %14, i32 0, i32 1
  %170 = load i64, ptr %169, align 8
  %171 = call i32 @avifRWDataSet(ptr noundef %166, ptr noundef %168, i64 noundef %170)
  store i32 %171, ptr %16, align 4
  %172 = load i32, ptr %16, align 4
  %173 = icmp ne i32 %172, 0
  br i1 %173, label %174, label %176

174:                                              ; preds = %164
  %175 = load i32, ptr %16, align 4
  store i32 %175, ptr %4, align 4
  br label %181

176:                                              ; preds = %164
  br label %177

177:                                              ; preds = %176
  br label %178

178:                                              ; preds = %177, %160
  br label %179

179:                                              ; preds = %178, %83
  br label %180

180:                                              ; preds = %179, %22
  store i32 0, ptr %4, align 4
  br label %181

181:                                              ; preds = %180, %174, %134, %127, %110, %81, %65, %57
  %182 = load i32, ptr %4, align 4
  ret i32 %182
}