; Function Attrs: nounwind uwtable
define internal fastcc i32 @avifDecoderPrepareSample(ptr noundef %0, ptr noundef %1, i64 noundef %2) unnamed_addr #0 {
  %4 = alloca ptr, align 8
  %5 = alloca %struct.avifROData, align 8
  %6 = alloca %struct.avifROData, align 8
  %7 = getelementptr inbounds nuw i8, ptr %1, i64 8
  %8 = load i64, ptr %7, align 8
  %.not = icmp eq i64 %8, 0
  br i1 %.not, label %12, label %9

9:                                                ; preds = %3
  %10 = getelementptr inbounds nuw i8, ptr %1, i64 20
  %11 = load i32, ptr %10, align 4
  %.not52 = icmp eq i32 %11, 0
  br i1 %.not52, label %65, label %12

12:                                               ; preds = %9, %3
  %13 = getelementptr inbounds nuw i8, ptr %1, i64 40
  %14 = load i64, ptr %13, align 8
  %.not53.not = icmp eq i64 %2, 0
  %15 = tail call i64 @llvm.umin.i64(i64 %14, i64 %2)
  %.043 = select i1 %.not53.not, i64 %14, i64 %15
  %16 = getelementptr inbounds nuw i8, ptr %1, i64 24
  %17 = load i32, ptr %16, align 8
  %.not54 = icmp eq i32 %17, 0
  br i1 %.not54, label %36, label %18

18:                                               ; preds = %12
  %19 = getelementptr inbounds nuw i8, ptr %0, i64 424
  %20 = load ptr, ptr %19, align 8
  %21 = load ptr, ptr %20, align 8
  %22 = call fastcc i32 @avifMetaFindOrCreateItem(ptr noundef %21, i32 noundef %17, ptr noundef %4)
  %.not61 = icmp eq i32 %22, 0
  br i1 %.not61, label %23, label %66

23:                                               ; preds = %18
  %24 = getelementptr inbounds nuw i8, ptr %1, i64 32
  %25 = load i64, ptr %24, align 8
  %26 = load ptr, ptr %4, align 8
  %27 = getelementptr inbounds nuw i8, ptr %0, i64 416
  %28 = load ptr, ptr %27, align 8
  %29 = getelementptr inbounds nuw i8, ptr %0, i64 160
  %30 = call fastcc i32 @avifDecoderItemRead(ptr noundef %26, ptr noundef %28, ptr noundef %5, i64 noundef %25, i64 noundef %.043, ptr noundef nonnull %29)
  %.not62 = icmp eq i32 %30, 0
  br i1 %.not62, label %31, label %66

31:                                               ; preds = %23
  call void @llvm.memcpy.p0.p0.i64(ptr noundef nonnull align 8 dereferenceable(16) %1, ptr noundef nonnull align 8 dereferenceable(16) %5, i64 16, i1 false)
  %32 = getelementptr inbounds nuw i8, ptr %1, i64 16
  store i32 0, ptr %32, align 8
  %33 = getelementptr inbounds nuw i8, ptr %26, i64 180
  %34 = load i32, ptr %33, align 4
  %35 = getelementptr inbounds nuw i8, ptr %1, i64 20
  store i32 %34, ptr %35, align 4
  br label %65

36:                                               ; preds = %12
  %37 = getelementptr inbounds nuw i8, ptr %0, i64 416
  %38 = load ptr, ptr %37, align 8
  %39 = getelementptr inbounds nuw i8, ptr %38, i64 24
  %40 = load i64, ptr %39, align 8
  %.not55 = icmp ne i64 %40, 0
  %.phi.trans.insert = getelementptr inbounds nuw i8, ptr %1, i64 32
  %.pre = load i64, ptr %.phi.trans.insert, align 8
  %41 = icmp ugt i64 %.pre, %40
  %or.cond = select i1 %.not55, i1 %41, i1 false
  br i1 %or.cond, label %66, label %._crit_edge

._crit_edge:                                      ; preds = %36
  %42 = getelementptr inbounds nuw i8, ptr %38, i64 8
  %43 = load ptr, ptr %42, align 8
  %44 = call i32 %43(ptr noundef nonnull %38, i32 noundef 0, i64 noundef %.pre, i64 noundef %.043, ptr noundef nonnull %6) #13
  %.not56 = icmp eq i32 %44, 0
  br i1 %.not56, label %45, label %66

45:                                               ; preds = %._crit_edge
  %46 = getelementptr inbounds nuw i8, ptr %6, i64 8
  %47 = load i64, ptr %46, align 8
  %.not57 = icmp eq i64 %47, %.043
  br i1 %.not57, label %48, label %66

48:                                               ; preds = %45
  %49 = load ptr, ptr %37, align 8
  %50 = getelementptr inbounds nuw i8, ptr %49, i64 32
  %51 = load i32, ptr %50, align 8
  %.not58 = icmp eq i32 %51, 0
  %52 = zext i1 %.not58 to i32
  %53 = getelementptr inbounds nuw i8, ptr %1, i64 16
  store i32 %52, ptr %53, align 8
  %54 = load i64, ptr %13, align 8
  %55 = icmp ne i64 %.043, %54
  %56 = zext i1 %55 to i32
  %57 = getelementptr inbounds nuw i8, ptr %1, i64 20
  store i32 %56, ptr %57, align 4
  %58 = load ptr, ptr %37, align 8
  %59 = getelementptr inbounds nuw i8, ptr %58, i64 32
  %60 = load i32, ptr %59, align 8
  %.not59 = icmp eq i32 %60, 0
  br i1 %.not59, label %62, label %61

61:                                               ; preds = %48
  call void @llvm.memcpy.p0.p0.i64(ptr noundef nonnull align 8 dereferenceable(16) %1, ptr noundef nonnull align 8 dereferenceable(16) %6, i64 16, i1 false)
  br label %65

62:                                               ; preds = %48
  %63 = load ptr, ptr %6, align 8
  %64 = call i32 @avifRWDataSet(ptr noundef nonnull %1, ptr noundef %63, i64 noundef %.043) #13
  %.not60 = icmp eq i32 %64, 0
  br i1 %.not60, label %65, label %66

65:                                               ; preds = %31, %62, %61, %9
  br label %66

66:                                               ; preds = %36, %62, %45, %._crit_edge, %23, %18, %65
  %.0 = phi i32 [ 0, %65 ], [ %22, %18 ], [ %30, %23 ], [ %44, %._crit_edge ], [ 20, %45 ], [ %64, %62 ], [ 9, %36 ]
  ret i32 %.0
}